target datalayout = "e-m:e-p270:32:32-p271:32:32-p272:64:64-i64:64-i128:128-f80:128-n8:16:32:64-S128"
target triple = "x86_64-pc-linux-gnu"

%struct.IDAMemRec = type { double, ptr, ptr, i32, double, double, ptr, i32, ptr, ptr, i32, ptr, ptr, i32, i32, double, double, ptr, i32, i32, i32, ptr, ptr, i32, ptr, ptr, ptr, i32, double, i32, i32, double, ptr, ptr, i32, ptr, ptr, i32, i32, i32, double, ptr, ptr, [6 x ptr], [6 x double], [6 x double], [6 x double], [6 x double], [6 x double], ptr, ptr, ptr, ptr, ptr, ptr, ptr, ptr, ptr, ptr, ptr, ptr, ptr, ptr, ptr, [6 x ptr], ptr, ptr, ptr, ptr, [6 x ptr], ptr, ptr, ptr, ptr, ptr, ptr, ptr, ptr, ptr, ptr, ptr, ptr, ptr, ptr, [6 x ptr], ptr, ptr, ptr, ptr, ptr, double, ptr, ptr, i32, i32, i32, i32, i32, i32, i32, double, double, double, i32, double, i32, i32, i32, i32, double, double, double, double, double, double, double, double, double, double, double, double, double, double, i32, i32, i32, i32, i32, i64, double, i32, i64, i64, i64, i64, i64, i64, i64, i64, i64, i64, i64, i64, i64, i64, i64, i64, i64, i64, i64, i64, i64, i64, i64, i64, ptr, ptr, ptr, i32, i32, i32, i32, i32, i32, i32, i32, i32, i32, i32, i32, i32, ptr, ptr, ptr, ptr, ptr, ptr, i32, i32, i32, i32, i32, i32, double, double, double, ptr, i32, ptr, ptr, double, double, double, ptr, ptr, ptr, double, double, i32, i32, i64, ptr, i32, i32, ptr, i32 }

@.str.109 = private unnamed_addr constant [8 x i8] c"WARNING\00", align 1
@.str.110 = private unnamed_addr constant [6 x i8] c"ERROR\00", align 1
@.str.111 = private unnamed_addr constant [14 x i8] c"\0A[%s %s]  %s\0A\00", align 1
@.str.112 = private unnamed_addr constant [7 x i8] c"  %s\0A\0A\00", align 1

; Function Attrs: nounwind uwtable
define void @IDAErrHandler(i32 noundef %0, ptr noundef %1, ptr noundef %2, ptr noundef %3, ptr noundef %4) #0 {
  %6 = alloca i32, align 4
  %7 = alloca ptr, align 8
  %8 = alloca ptr, align 8
  %9 = alloca ptr, align 8
  %10 = alloca ptr, align 8
  %11 = alloca ptr, align 8
  %12 = alloca [10 x i8], align 1
  store i32 %0, ptr %6, align 4, !tbaa !88
  store ptr %1, ptr %7, align 8, !tbaa !89
  store ptr %2, ptr %8, align 8, !tbaa !89
  store ptr %3, ptr %9, align 8, !tbaa !89
  store ptr %4, ptr %10, align 8, !tbaa !91
  call void @llvm.lifetime.start.p0(i64 8, ptr %11) #8
  call void @llvm.lifetime.start.p0(i64 10, ptr %12) #8
  %13 = load ptr, ptr %10, align 8, !tbaa !91
  store ptr %13, ptr %11, align 8, !tbaa !3
  %14 = load i32, ptr %6, align 4, !tbaa !88
  %15 = icmp eq i32 %14, 99
  br i1 %15, label %16, label %19

16:                                               ; preds = %5
  %17 = getelementptr inbounds [10 x i8], ptr %12, i64 0, i64 0
  %18 = call i32 (ptr, ptr, ...) @sprintf(ptr noundef %17, ptr noundef @.str.109) #8
  br label %22

19:                                               ; preds = %5
  %20 = getelementptr inbounds [10 x i8], ptr %12, i64 0, i64 0
  %21 = call i32 (ptr, ptr, ...) @sprintf(ptr noundef %20, ptr noundef @.str.110) #8
  br label %22

22:                                               ; preds = %19, %16
  %23 = load ptr, ptr %11, align 8, !tbaa !3
  %24 = getelementptr inbounds nuw %struct.IDAMemRec, ptr %23, i32 0, i32 157
  %25 = load ptr, ptr %24, align 8, !tbaa !28
  %26 = icmp ne ptr %25, null
  br i1 %26, label %27, label %40

27:                                               ; preds = %22
  %28 = load ptr, ptr %11, align 8, !tbaa !3
  %29 = getelementptr inbounds nuw %struct.IDAMemRec, ptr %28, i32 0, i32 157
  %30 = load ptr, ptr %29, align 8, !tbaa !28
  %31 = load ptr, ptr %7, align 8, !tbaa !89
  %32 = getelementptr inbounds [10 x i8], ptr %12, i64 0, i64 0
  %33 = load ptr, ptr %8, align 8, !tbaa !89
  %34 = call i32 (ptr, ptr, ...) @fprintf(ptr noundef %30, ptr noundef @.str.111, ptr noundef %31, ptr noundef %32, ptr noundef %33) #8
  %35 = load ptr, ptr %11, align 8, !tbaa !3
  %36 = getelementptr inbounds nuw %struct.IDAMemRec, ptr %35, i32 0, i32 157
  %37 = load ptr, ptr %36, align 8, !tbaa !28
  %38 = load ptr, ptr %9, align 8, !tbaa !89
  %39 = call i32 (ptr, ptr, ...) @fprintf(ptr noundef %37, ptr noundef @.str.112, ptr noundef %38) #8
  br label %40

40:                                               ; preds = %27, %22
  call void @llvm.lifetime.end.p0(i64 10, ptr %12) #8
  call void @llvm.lifetime.end.p0(i64 8, ptr %11) #8
  ret void
}