; Function Attrs: nofree nounwind uwtable
define void @IDAErrHandler(i32 noundef %0, ptr noundef %1, ptr noundef %2, ptr noundef %3, ptr noundef readonly captures(none) %4) #4 {
  %6 = alloca [10 x i8], align 8
  call void @llvm.lifetime.start.p0(i64 10, ptr nonnull %6) #13
  %7 = icmp eq i32 %0, 99
  br i1 %7, label %8, label %9

8:                                                ; preds = %5
  store i64 20070800100049239, ptr %6, align 8
  br label %10

9:                                                ; preds = %5
  call void @llvm.memcpy.p0.p0.i64(ptr noundef nonnull align 8 dereferenceable(6) %6, ptr noundef nonnull align 1 dereferenceable(6) @.str.110, i64 6, i1 false)
  br label %10

10:                                               ; preds = %9, %8
  %11 = getelementptr inbounds nuw i8, ptr %4, i64 1528
  %12 = load ptr, ptr %11, align 8, !tbaa !20
  %.not = icmp eq ptr %12, null
  br i1 %.not, label %17, label %13

13:                                               ; preds = %10
  %14 = call i32 (ptr, ptr, ...) @fprintf(ptr noundef nonnull %12, ptr noundef nonnull @.str.111, ptr noundef %1, ptr noundef nonnull %6, ptr noundef %2) #13
  %15 = load ptr, ptr %11, align 8, !tbaa !20
  %16 = call i32 (ptr, ptr, ...) @fprintf(ptr noundef %15, ptr noundef nonnull @.str.112, ptr noundef %3) #13
  br label %17

17:                                               ; preds = %13, %10
  call void @llvm.lifetime.end.p0(i64 10, ptr nonnull %6) #13
  ret void
}